target datalayout = "e-m:e-p270:32:32-p271:32:32-p272:64:64-i64:64-i128:128-f80:128-n8:16:32:64-S128"
target triple = "x86_64-unknown-linux-gnu"

%"struct.bound_propagator::bound" = type { %class.mpq, double, i32, i32, %union.anon, ptr }
%class.mpq = type { %class.mpz, %class.mpz }
%class.mpz = type { i32, i8, ptr }
%union.anon = type { i32 }
%class.bound_propagator = type { ptr, ptr, %class.linear_equation_manager, %class.svector.4, %class.svector.0, %class.svector.0, %class.ptr_vector, %class.ptr_vector, %class.vector.7, %class.svector.8, i32, %class.svector.2, %class.svector.2, %class.svector.2, i32, i32, %class.mpq, %class.svector.10, %class.svector.2, i32, double, double, double, i32, i32, i32, %class.svector.12 }
%class.linear_equation_manager = type { ptr, ptr, %class.numeral_buffer, %class.numeral_buffer, %class.svector.0, %class.svector.2 }
%class.numeral_buffer = type { ptr, %class.svector }
%class.svector = type { %class.vector }
%class.vector = type { ptr }
%class.svector.4 = type { %class.vector.5 }
%class.vector.5 = type { ptr }
%class.svector.0 = type { %class.vector.1 }
%class.vector.1 = type { ptr }
%class.ptr_vector = type { %class.vector.6 }
%class.vector.6 = type { ptr }
%class.vector.7 = type { ptr }
%class.svector.8 = type { %class.vector.9 }
%class.vector.9 = type { ptr }
%class.svector.10 = type { %class.vector.11 }
%class.vector.11 = type { ptr }
%class.svector.2 = type { %class.vector.3 }
%class.vector.3 = type { ptr }
%class.svector.12 = type { %class.vector.13 }
%class.vector.13 = type { ptr }

; Function Attrs: mustprogress nounwind uwtable
define linkonce_odr hidden noundef nonnull align 1 dereferenceable(1) ptr @_ZNK6vectorIcLb0EjEixEj(ptr noundef nonnull align 8 dereferenceable(8) %this, i32 noundef %idx) #5 comdat align 2 {
entry:
  %this.addr = alloca ptr, align 8
  %idx.addr = alloca i32, align 4
  store ptr %this, ptr %this.addr, align 8
  store i32 %idx, ptr %idx.addr, align 4
  %this1 = load ptr, ptr %this.addr, align 8
  %m_data = getelementptr inbounds %class.vector.1, ptr %this1, i32 0, i32 0
  %0 = load ptr, ptr %m_data, align 8
  %1 = load i32, ptr %idx.addr, align 4
  %idxprom = zext i32 %1 to i64
  %arrayidx = getelementptr inbounds i8, ptr %0, i64 %idxprom
  ret ptr %arrayidx
}

; Function Attrs: mustprogress nounwind uwtable
define linkonce_odr hidden noundef nonnull align 4 dereferenceable(4) ptr @_ZNK6vectorIjLb0EjEixEj(ptr noundef nonnull align 8 dereferenceable(8) %this, i32 noundef %idx) #5 comdat align 2 {
entry:
  %this.addr = alloca ptr, align 8
  %idx.addr = alloca i32, align 4
  store ptr %this, ptr %this.addr, align 8
  store i32 %idx, ptr %idx.addr, align 4
  %this1 = load ptr, ptr %this.addr, align 8
  %m_data = getelementptr inbounds %class.vector.3, ptr %this1, i32 0, i32 0
  %0 = load ptr, ptr %m_data, align 8
  %1 = load i32, ptr %idx.addr, align 4
  %idxprom = zext i32 %1 to i64
  %arrayidx = getelementptr inbounds i32, ptr %0, i64 %idxprom
  ret ptr %arrayidx
}

; Function Attrs: mustprogress nounwind uwtable
define linkonce_odr noundef nonnull align 8 dereferenceable(8) ptr @_ZSt3maxIdERKT_S2_S2_(ptr noundef nonnull align 8 dereferenceable(8) %__a, ptr noundef nonnull align 8 dereferenceable(8) %__b) #5 comdat {
entry:
  %retval = alloca ptr, align 8
  %__a.addr = alloca ptr, align 8
  %__b.addr = alloca ptr, align 8
  store ptr %__a, ptr %__a.addr, align 8
  store ptr %__b, ptr %__b.addr, align 8
  %0 = load ptr, ptr %__a.addr, align 8
  %1 = load double, ptr %0, align 8
  %2 = load ptr, ptr %__b.addr, align 8
  %3 = load double, ptr %2, align 8
  %cmp = fcmp olt double %1, %3
  br i1 %cmp, label %if.then, label %if.end

if.then:                                          ; preds = %entry
  %4 = load ptr, ptr %__b.addr, align 8
  store ptr %4, ptr %retval, align 8
  br label %return

if.end:                                           ; preds = %entry
  %5 = load ptr, ptr %__a.addr, align 8
  store ptr %5, ptr %retval, align 8
  br label %return

return:                                           ; preds = %if.end, %if.then
  %6 = load ptr, ptr %retval, align 8
  ret ptr %6
}

; Function Attrs: mustprogress nounwind uwtable
define linkonce_odr noundef nonnull align 8 dereferenceable(8) ptr @_ZSt3minIdERKT_S2_S2_(ptr noundef nonnull align 8 dereferenceable(8) %__a, ptr noundef nonnull align 8 dereferenceable(8) %__b) #5 comdat {
entry:
  %retval = alloca ptr, align 8
  %__a.addr = alloca ptr, align 8
  %__b.addr = alloca ptr, align 8
  store ptr %__a, ptr %__a.addr, align 8
  store ptr %__b, ptr %__b.addr, align 8
  %0 = load ptr, ptr %__b.addr, align 8
  %1 = load double, ptr %0, align 8
  %2 = load ptr, ptr %__a.addr, align 8
  %3 = load double, ptr %2, align 8
  %cmp = fcmp olt double %1, %3
  br i1 %cmp, label %if.then, label %if.end

if.then:                                          ; preds = %entry
  %4 = load ptr, ptr %__b.addr, align 8
  store ptr %4, ptr %retval, align 8
  br label %return

if.end:                                           ; preds = %entry
  %5 = load ptr, ptr %__a.addr, align 8
  store ptr %5, ptr %retval, align 8
  br label %return

return:                                           ; preds = %if.end, %if.then
  %6 = load ptr, ptr %retval, align 8
  ret ptr %6
}

; Function Attrs: mustprogress uwtable
define linkonce_odr hidden noundef zeroext i1 @_ZNK16bound_propagator6is_intEj(ptr noundef nonnull align 8 dereferenceable(280) %this, i32 noundef %x) #4 comdat align 2 {
entry:
  %this.addr = alloca ptr, align 8
  %x.addr = alloca i32, align 4
  store ptr %this, ptr %this.addr, align 8
  store i32 %x, ptr %x.addr, align 4
  %this1 = load ptr, ptr %this.addr, align 8
  %m_is_int = getelementptr inbounds %class.bound_propagator, ptr %this1, i32 0, i32 4
  %0 = load i32, ptr %x.addr, align 4
  %call = call noundef nonnull align 1 dereferenceable(1) ptr @_ZNK6vectorIcLb0EjEixEj(ptr noundef nonnull align 8 dereferenceable(8) %m_is_int, i32 noundef %0)
  %1 = load i8, ptr %call, align 1
  %conv = sext i8 %1 to i32
  %cmp = icmp ne i32 %conv, 0
  ret i1 %cmp
}

; Function Attrs: mustprogress uwtable
define hidden noundef zeroext i1 @_ZNK16bound_propagator17get_interval_sizeEjRd(ptr noundef nonnull align 8 dereferenceable(280) %this, i32 noundef %x, ptr noundef nonnull align 8 dereferenceable(8) %r) #4 align 2 {
entry:
  %retval = alloca i1, align 1
  %this.addr = alloca ptr, align 8
  %x.addr = alloca i32, align 4
  %r.addr = alloca ptr, align 8
  %l = alloca ptr, align 8
  %u = alloca ptr, align 8
  store ptr %this, ptr %this.addr, align 8
  store i32 %x, ptr %x.addr, align 4
  store ptr %r, ptr %r.addr, align 8
  %this1 = load ptr, ptr %this.addr, align 8
  %m_lowers = getelementptr inbounds %class.bound_propagator, ptr %this1, i32 0, i32 6
  %0 = load i32, ptr %x.addr, align 4
  %call = call noundef nonnull align 8 dereferenceable(8) ptr @_ZNK6vectorIPN16bound_propagator5boundELb0EjEixEj(ptr noundef nonnull align 8 dereferenceable(8) %m_lowers, i32 noundef %0)
  %1 = load ptr, ptr %call, align 8
  store ptr %1, ptr %l, align 8
  %m_uppers = getelementptr inbounds %class.bound_propagator, ptr %this1, i32 0, i32 7
  %2 = load i32, ptr %x.addr, align 4
  %call2 = call noundef nonnull align 8 dereferenceable(8) ptr @_ZNK6vectorIPN16bound_propagator5boundELb0EjEixEj(ptr noundef nonnull align 8 dereferenceable(8) %m_uppers, i32 noundef %2)
  %3 = load ptr, ptr %call2, align 8
  store ptr %3, ptr %u, align 8
  %4 = load ptr, ptr %l, align 8
  %tobool = icmp ne ptr %4, null
  br i1 %tobool, label %land.lhs.true, label %if.end

land.lhs.true:                                    ; preds = %entry
  %5 = load ptr, ptr %u, align 8
  %tobool3 = icmp ne ptr %5, null
  br i1 %tobool3, label %if.then, label %if.end

if.then:                                          ; preds = %land.lhs.true
  %6 = load ptr, ptr %u, align 8
  %m_approx_k = getelementptr inbounds %"struct.bound_propagator::bound", ptr %6, i32 0, i32 1
  %7 = load double, ptr %m_approx_k, align 8
  %8 = load ptr, ptr %l, align 8
  %m_approx_k4 = getelementptr inbounds %"struct.bound_propagator::bound", ptr %8, i32 0, i32 1
  %9 = load double, ptr %m_approx_k4, align 8
  %sub = fsub double %7, %9
  %10 = load ptr, ptr %r.addr, align 8
  store double %sub, ptr %10, align 8
  store i1 true, ptr %retval, align 1
  br label %return

if.end:                                           ; preds = %land.lhs.true, %entry
  store i1 false, ptr %retval, align 1
  br label %return

return:                                           ; preds = %if.end, %if.then
  %11 = load i1, ptr %retval, align 1
  ret i1 %11
}

; Function Attrs: mustprogress nounwind uwtable
define linkonce_odr hidden noundef nonnull align 8 dereferenceable(8) ptr @_ZNK6vectorIPN16bound_propagator5boundELb0EjEixEj(ptr noundef nonnull align 8 dereferenceable(8) %this, i32 noundef %idx) #5 comdat align 2 {
entry:
  %this.addr = alloca ptr, align 8
  %idx.addr = alloca i32, align 4
  store ptr %this, ptr %this.addr, align 8
  store i32 %idx, ptr %idx.addr, align 4
  %this1 = load ptr, ptr %this.addr, align 8
  %m_data = getelementptr inbounds %class.vector.6, ptr %this1, i32 0, i32 0
  %0 = load ptr, ptr %m_data, align 8
  %1 = load i32, ptr %idx.addr, align 4
  %idxprom = zext i32 %1 to i64
  %arrayidx = getelementptr inbounds ptr, ptr %0, i64 %idxprom
  ret ptr %arrayidx
}

; Function Attrs: mustprogress uwtable
define linkonce_odr hidden noundef zeroext i1 @_ZNK16bound_propagator14relevant_boundILb0EEEbjd(ptr noundef nonnull align 8 dereferenceable(280) %this, i32 noundef %x, double noundef %new_k) #4 comdat align 2 {
entry:
  %retval = alloca i1, align 1
  %this.addr = alloca ptr, align 8
  %x.addr = alloca i32, align 4
  %new_k.addr = alloca double, align 8
  %b = alloca ptr, align 8
  %interval_size = alloca double, align 8
  %bounded = alloca i8, align 1
  %improvement = alloca double, align 8
  %abs_k = alloca double, align 8
  %ref.tmp = alloca double, align 8
  %ref.tmp12 = alloca double, align 8
  store ptr %this, ptr %this.addr, align 8
  store i32 %x, ptr %x.addr, align 4
  store double %new_k, ptr %new_k.addr, align 8
  %this1 = load ptr, ptr %this.addr, align 8
  %m_uppers = getelementptr inbounds %class.bound_propagator, ptr %this1, i32 0, i32 7
  %0 = load i32, ptr %x.addr, align 4
  %call = call noundef nonnull align 8 dereferenceable(8) ptr @_ZNK6vectorIPN16bound_propagator5boundELb0EjEixEj(ptr noundef nonnull align 8 dereferenceable(8) %m_uppers, i32 noundef %0)
  %1 = load ptr, ptr %call, align 8
  store ptr %1, ptr %b, align 8
  %2 = load ptr, ptr %b, align 8
  %cmp = icmp eq ptr %2, null
  br i1 %cmp, label %if.then, label %if.end

if.then:                                          ; preds = %entry
  store i1 true, ptr %retval, align 1
  br label %return

if.end:                                           ; preds = %entry
  %3 = load i32, ptr %x.addr, align 4
  %call2 = call noundef zeroext i1 @_ZNK16bound_propagator17get_interval_sizeEjRd(ptr noundef nonnull align 8 dereferenceable(280) %this1, i32 noundef %3, ptr noundef nonnull align 8 dereferenceable(8) %interval_size)
  %frombool = zext i1 %call2 to i8
  store i8 %frombool, ptr %bounded, align 1
  %4 = load i32, ptr %x.addr, align 4
  %call3 = call noundef zeroext i1 @_ZNK16bound_propagator6is_intEj(ptr noundef nonnull align 8 dereferenceable(280) %this1, i32 noundef %4)
  br i1 %call3, label %if.else21, label %if.then4

if.then4:                                         ; preds = %if.end
  %5 = load ptr, ptr %b, align 8
  %m_approx_k = getelementptr inbounds %"struct.bound_propagator::bound", ptr %5, i32 0, i32 1
  %6 = load double, ptr %m_approx_k, align 8
  store double %6, ptr %abs_k, align 8
  %7 = load double, ptr %abs_k, align 8
  %cmp5 = fcmp olt double %7, 0.000000e+00
  br i1 %cmp5, label %if.then6, label %if.end7

if.then6:                                         ; preds = %if.then4
  %8 = load double, ptr %abs_k, align 8
  %9 = load double, ptr %abs_k, align 8
  %sub = fsub double %9, %8
  store double %sub, ptr %abs_k, align 8
  br label %if.end7

if.end7:                                          ; preds = %if.then6, %if.then4
  %10 = load i8, ptr %bounded, align 1
  %tobool = trunc i8 %10 to i1
  br i1 %tobool, label %if.then8, label %if.else

if.then8:                                         ; preds = %if.end7
  %m_threshold = getelementptr inbounds %class.bound_propagator, ptr %this1, i32 0, i32 21
  %11 = load double, ptr %m_threshold, align 8
  %call9 = call noundef nonnull align 8 dereferenceable(8) ptr @_ZSt3minIdERKT_S2_S2_(ptr noundef nonnull align 8 dereferenceable(8) %interval_size, ptr noundef nonnull align 8 dereferenceable(8) %abs_k)
  store double 1.000000e+00, ptr %ref.tmp, align 8
  %call10 = call noundef nonnull align 8 dereferenceable(8) ptr @_ZSt3maxIdERKT_S2_S2_(ptr noundef nonnull align 8 dereferenceable(8) %call9, ptr noundef nonnull align 8 dereferenceable(8) %ref.tmp)
  %12 = load double, ptr %call10, align 8
  %mul = fmul double %11, %12
  store double %mul, ptr %improvement, align 8
  br label %if.end15

if.else:                                          ; preds = %if.end7
  %m_threshold11 = getelementptr inbounds %class.bound_propagator, ptr %this1, i32 0, i32 21
  %13 = load double, ptr %m_threshold11, align 8
  store double 1.000000e+00, ptr %ref.tmp12, align 8
  %call13 = call noundef nonnull align 8 dereferenceable(8) ptr @_ZSt3maxIdERKT_S2_S2_(ptr noundef nonnull align 8 dereferenceable(8) %abs_k, ptr noundef nonnull align 8 dereferenceable(8) %ref.tmp12)
  %14 = load double, ptr %call13, align 8
  %mul14 = fmul double %13, %14
  store double %mul14, ptr %improvement, align 8
  br label %if.end15

if.end15:                                         ; preds = %if.else, %if.then8
  %15 = load double, ptr %new_k.addr, align 8
  %16 = load ptr, ptr %b, align 8
  %m_approx_k16 = getelementptr inbounds %"struct.bound_propagator::bound", ptr %16, i32 0, i32 1
  %17 = load double, ptr %m_approx_k16, align 8
  %18 = load double, ptr %improvement, align 8
  %sub17 = fsub double %17, %18
  %cmp18 = fcmp oge double %15, %sub17
  br i1 %cmp18, label %if.then19, label %if.end20

if.then19:                                        ; preds = %if.end15
  store i1 false, ptr %retval, align 1
  br label %return

if.end20:                                         ; preds = %if.end15
  br label %if.end27

if.else21:                                        ; preds = %if.end
  %19 = load double, ptr %new_k.addr, align 8
  %20 = load ptr, ptr %b, align 8
  %m_approx_k22 = getelementptr inbounds %"struct.bound_propagator::bound", ptr %20, i32 0, i32 1
  %21 = load double, ptr %m_approx_k22, align 8
  %sub23 = fsub double %21, 1.000000e+00
  %cmp24 = fcmp ogt double %19, %sub23
  br i1 %cmp24, label %if.then25, label %if.end26

if.then25:                                        ; preds = %if.else21
  store i1 false, ptr %retval, align 1
  br label %return

if.end26:                                         ; preds = %if.else21
  br label %if.end27

if.end27:                                         ; preds = %if.end26, %if.end20
  %22 = load i8, ptr %bounded, align 1
  %tobool28 = trunc i8 %22 to i1
  br i1 %tobool28, label %land.lhs.true, label %if.end31

land.lhs.true:                                    ; preds = %if.end27
  %23 = load double, ptr %interval_size, align 8
  %m_small_interval = getelementptr inbounds %class.bound_propagator, ptr %this1, i32 0, i32 20
  %24 = load double, ptr %m_small_interval, align 8
  %cmp29 = fcmp ole double %23, %24
  br i1 %cmp29, label %if.then30, label %if.end31

if.then30:                                        ; preds = %land.lhs.true
  store i1 true, ptr %retval, align 1
  br label %return

if.end31:                                         ; preds = %land.lhs.true, %if.end27
  %m_upper_refinements = getelementptr inbounds %class.bound_propagator, ptr %this1, i32 0, i32 13
  %25 = load i32, ptr %x.addr, align 4
  %call32 = call noundef nonnull align 4 dereferenceable(4) ptr @_ZNK6vectorIjLb0EjEixEj(ptr noundef nonnull align 8 dereferenceable(8) %m_upper_refinements, i32 noundef %25)
  %26 = load i32, ptr %call32, align 4
  %m_max_refinements = getelementptr inbounds %class.bound_propagator, ptr %this1, i32 0, i32 19
  %27 = load i32, ptr %m_max_refinements, align 8
  %cmp33 = icmp ult i32 %26, %27
  store i1 %cmp33, ptr %retval, align 1
  br label %return

return:                                           ; preds = %if.end31, %if.then30, %if.then25, %if.then19, %if.then
  %28 = load i1, ptr %retval, align 1
  ret i1 %28
}

; Function Attrs: mustprogress uwtable
define hidden noundef zeroext i1 @_ZNK16bound_propagator14relevant_upperEjd(ptr noundef nonnull align 8 dereferenceable(280) %this, i32 noundef %x, double noundef %approx_k) #4 align 2 {
entry:
  %this.addr = alloca ptr, align 8
  %x.addr = alloca i32, align 4
  %approx_k.addr = alloca double, align 8
  store ptr %this, ptr %this.addr, align 8
  store i32 %x, ptr %x.addr, align 4
  store double %approx_k, ptr %approx_k.addr, align 8
  %this1 = load ptr, ptr %this.addr, align 8
  %0 = load i32, ptr %x.addr, align 4
  %1 = load double, ptr %approx_k.addr, align 8
  %call = call noundef zeroext i1 @_ZNK16bound_propagator14relevant_boundILb0EEEbjd(ptr noundef nonnull align 8 dereferenceable(280) %this1, i32 noundef %0, double noundef %1)
  ret i1 %call
}