; Function Attrs: mustprogress nofree norecurse nosync nounwind willreturn memory(read, inaccessiblemem: none) uwtable
define hidden noundef zeroext i1 @_ZNK16bound_propagator14relevant_upperEjd(ptr nocapture noundef nonnull readonly align 8 dereferenceable(280) %this, i32 noundef %x, double noundef %approx_k) local_unnamed_addr #12 align 2 {
entry:
  %m_uppers.i = getelementptr inbounds i8, ptr %this, i64 112
  %0 = load ptr, ptr %m_uppers.i, align 8
  %idxprom.i.i = zext i32 %x to i64
  %arrayidx.i.i = getelementptr inbounds ptr, ptr %0, i64 %idxprom.i.i
  %1 = load ptr, ptr %arrayidx.i.i, align 8
  %cmp.i = icmp eq ptr %1, null
  br i1 %cmp.i, label %_ZNK16bound_propagator14relevant_boundILb0EEEbjd.exit, label %if.end.i

if.end.i:                                         ; preds = %entry
  %m_lowers.i.i = getelementptr inbounds i8, ptr %this, i64 104
  %2 = load ptr, ptr %m_lowers.i.i, align 8
  %arrayidx.i.i.i = getelementptr inbounds ptr, ptr %2, i64 %idxprom.i.i
  %3 = load ptr, ptr %arrayidx.i.i.i, align 8
  %tobool.i.not25.i = icmp eq ptr %3, null
  %m_approx_k.i.phi.trans.insert = getelementptr inbounds i8, ptr %1, i64 32
  %.pre = load double, ptr %m_approx_k.i.phi.trans.insert, align 8
  br i1 %tobool.i.not25.i, label %_ZNK16bound_propagator17get_interval_sizeEjRd.exit.i, label %if.then.i.i

if.then.i.i:                                      ; preds = %if.end.i
  %m_approx_k4.i.i = getelementptr inbounds i8, ptr %3, i64 32
  %4 = load double, ptr %m_approx_k4.i.i, align 8
  %sub.i.i = fsub double %.pre, %4
  br label %_ZNK16bound_propagator17get_interval_sizeEjRd.exit.i

_ZNK16bound_propagator17get_interval_sizeEjRd.exit.i: ; preds = %if.end.i, %if.then.i.i
  %interval_size.0.i = phi double [ %sub.i.i, %if.then.i.i ], [ undef, %if.end.i ]
  %m_is_int.i.i = getelementptr inbounds i8, ptr %this, i64 88
  %5 = load ptr, ptr %m_is_int.i.i, align 8
  %arrayidx.i.i11.i = getelementptr inbounds i8, ptr %5, i64 %idxprom.i.i
  %6 = load i8, ptr %arrayidx.i.i11.i, align 1
  %cmp.i.not.i = icmp eq i8 %6, 0
  br i1 %cmp.i.not.i, label %if.then4.i, label %if.else21.i

if.then4.i:                                       ; preds = %_ZNK16bound_propagator17get_interval_sizeEjRd.exit.i
  %cmp5.i = fcmp olt double %.pre, 0.000000e+00
  %sub.i = fsub double %.pre, %.pre
  %storemerge.i = select i1 %cmp5.i, double %sub.i, double %.pre
  %m_threshold11.i = getelementptr inbounds i8, ptr %this, i64 240
  %7 = load double, ptr %m_threshold11.i, align 8
  %cmp.i12.i = fcmp olt double %storemerge.i, %interval_size.0.i
  %8 = select i1 %tobool.i.not25.i, i1 true, i1 %cmp.i12.i
  %storemerge.sink26.i = select i1 %8, double %storemerge.i, double %interval_size.0.i
  %cmp.i15.i = fcmp olt double %storemerge.sink26.i, 1.000000e+00
  %.sroa.speculated.i = select i1 %cmp.i15.i, double 1.000000e+00, double %storemerge.sink26.i
  %mul14.i = fmul double %.sroa.speculated.i, %7
  %sub17.i = fsub double %.pre, %mul14.i
  %cmp18.i = fcmp ugt double %sub17.i, %approx_k
  br i1 %cmp18.i, label %if.end27.i, label %_ZNK16bound_propagator14relevant_boundILb0EEEbjd.exit

if.else21.i:                                      ; preds = %_ZNK16bound_propagator17get_interval_sizeEjRd.exit.i
  %sub23.i = fadd double %.pre, -1.000000e+00
  %cmp24.i = fcmp olt double %sub23.i, %approx_k
  br i1 %cmp24.i, label %_ZNK16bound_propagator14relevant_boundILb0EEEbjd.exit, label %if.end27.i

if.end27.i:                                       ; preds = %if.else21.i, %if.then4.i
  %m_small_interval.i = getelementptr inbounds i8, ptr %this, i64 232
  %9 = load double, ptr %m_small_interval.i, align 8
  %cmp29.i = fcmp ugt double %interval_size.0.i, %9
  %or.cond.i = select i1 %tobool.i.not25.i, i1 true, i1 %cmp29.i
  br i1 %or.cond.i, label %if.end31.i, label %_ZNK16bound_propagator14relevant_boundILb0EEEbjd.exit

if.end31.i:                                       ; preds = %if.end27.i
  %m_upper_refinements.i = getelementptr inbounds i8, ptr %this, i64 160
  %10 = load ptr, ptr %m_upper_refinements.i, align 8
  %arrayidx.i18.i = getelementptr inbounds i32, ptr %10, i64 %idxprom.i.i
  %11 = load i32, ptr %arrayidx.i18.i, align 4
  %m_max_refinements.i = getelementptr inbounds i8, ptr %this, i64 224
  %12 = load i32, ptr %m_max_refinements.i, align 8
  %cmp33.i = icmp ult i32 %11, %12
  br label %_ZNK16bound_propagator14relevant_boundILb0EEEbjd.exit

_ZNK16bound_propagator14relevant_boundILb0EEEbjd.exit: ; preds = %entry, %if.then4.i, %if.else21.i, %if.end27.i, %if.end31.i
  %retval.0.i = phi i1 [ %cmp33.i, %if.end31.i ], [ true, %entry ], [ false, %if.then4.i ], [ false, %if.else21.i ], [ true, %if.end27.i ]
  ret i1 %retval.0.i
}